; Function Attrs: nounwind uwtable
define internal noundef zeroext i1 @copy_dest_receive(ptr noundef %0, ptr noundef captures(none) %1) #0 {
  %3 = getelementptr inbounds nuw i8, ptr %1, i64 40
  %4 = load ptr, ptr %3, align 8
  tail call fastcc void @CopyOneRowTo(ptr noundef %4, ptr noundef %0)
  %5 = getelementptr inbounds nuw i8, ptr %1, i64 48
  %6 = load i64, ptr %5, align 8
  %7 = add i64 %6, 1
  store i64 %7, ptr %5, align 8
  tail call void @pgstat_progress_update_param(i32 noundef 2, i64 noundef %7) #17
  ret i1 true
}